target datalayout = "e-m:e-p270:32:32-p271:32:32-p272:64:64-i64:64-i128:128-f80:128-n8:16:32:64-S128"
target triple = "x86_64-pc-linux-gnu"

%struct.JsonbValue = type { i32, %union.anon }
%union.anon = type { %struct.anon.2 }
%struct.anon.2 = type { i32, ptr, i8 }
%struct.anon.1 = type { i32, ptr }

; Function Attrs: nounwind uwtable
define internal void @push_null_elements(ptr noundef %0, i32 noundef %1) #0 {
  %3 = alloca ptr, align 8
  %4 = alloca i32, align 4
  %5 = alloca %struct.JsonbValue, align 8
  store ptr %0, ptr %3, align 8
  store i32 %1, ptr %4, align 4
  call void @llvm.lifetime.start.p0(i64 32, ptr %5) #10
  %6 = getelementptr inbounds nuw %struct.JsonbValue, ptr %5, i32 0, i32 0
  store i32 0, ptr %6, align 8
  br label %7

7:                                                ; preds = %11, %2
  %8 = load i32, ptr %4, align 4
  %9 = add i32 %8, -1
  store i32 %9, ptr %4, align 4
  %10 = icmp sgt i32 %8, 0
  br i1 %10, label %11, label %14

11:                                               ; preds = %7
  %12 = load ptr, ptr %3, align 8
  %13 = call ptr @pushJsonbValue(ptr noundef %12, i32 noundef 3, ptr noundef %5)
  br label %7, !llvm.loop !42

14:                                               ; preds = %7
  call void @llvm.lifetime.end.p0(i64 32, ptr %5) #10
  ret void
}

; Function Attrs: inlinehint nounwind uwtable
define internal ptr @DatumGetPointer(i64 noundef %0) #3 {
  %2 = alloca i64, align 8
  store i64 %0, ptr %2, align 8
  %3 = load i64, ptr %2, align 8
  %4 = inttoptr i64 %3 to ptr
  ret ptr %4
}

; Function Attrs: nounwind uwtable
define internal void @push_path(ptr noundef %0, i32 noundef %1, ptr noundef %2, ptr noundef %3, i32 noundef %4, ptr noundef %5) #0 {
  %7 = alloca ptr, align 8
  %8 = alloca i32, align 4
  %9 = alloca ptr, align 8
  %10 = alloca ptr, align 8
  %11 = alloca i32, align 4
  %12 = alloca ptr, align 8
  %13 = alloca ptr, align 8
  %14 = alloca %struct.JsonbValue, align 8
  %15 = alloca i32, align 4
  %16 = alloca i32, align 4
  %17 = alloca ptr, align 8
  %18 = alloca ptr, align 8
  %19 = alloca i32, align 4
  %20 = alloca i32, align 4
  store ptr %0, ptr %7, align 8
  store i32 %1, ptr %8, align 4
  store ptr %2, ptr %9, align 8
  store ptr %3, ptr %10, align 8
  store i32 %4, ptr %11, align 4
  store ptr %5, ptr %12, align 8
  call void @llvm.lifetime.start.p0(i64 8, ptr %13) #10
  %21 = load i32, ptr %11, align 4
  %22 = load i32, ptr %8, align 4
  %23 = sub i32 %21, %22
  %24 = sext i32 %23 to i64
  %25 = mul i64 %24, 4
  %26 = call ptr @palloc0(i64 noundef %25)
  store ptr %26, ptr %13, align 8
  call void @llvm.lifetime.start.p0(i64 32, ptr %14) #10
  call void @llvm.lifetime.start.p0(i64 4, ptr %15) #10
  %27 = load i32, ptr %8, align 4
  %28 = add i32 %27, 1
  store i32 %28, ptr %15, align 4
  br label %29

29:                                               ; preds = %100, %6
  %30 = load i32, ptr %15, align 4
  %31 = load i32, ptr %11, align 4
  %32 = icmp slt i32 %30, %31
  br i1 %32, label %34, label %33

33:                                               ; preds = %29
  store i32 2, ptr %16, align 4
  br label %103

34:                                               ; preds = %29
  call void @llvm.lifetime.start.p0(i64 8, ptr %17) #10
  call void @llvm.lifetime.start.p0(i64 8, ptr %18) #10
  call void @llvm.lifetime.start.p0(i64 4, ptr %19) #10
  %35 = load ptr, ptr %10, align 8
  %36 = load i32, ptr %15, align 4
  %37 = sext i32 %36 to i64
  %38 = getelementptr inbounds i8, ptr %35, i64 %37
  %39 = load i8, ptr %38, align 1, !range !4, !noundef !5
  %40 = trunc i8 %39 to i1
  br i1 %40, label %41, label %42

41:                                               ; preds = %34
  store i32 2, ptr %16, align 4
  br label %97

42:                                               ; preds = %34
  %43 = load ptr, ptr %9, align 8
  %44 = load i32, ptr %15, align 4
  %45 = sext i32 %44 to i64
  %46 = getelementptr inbounds i64, ptr %43, i64 %45
  %47 = load i64, ptr %46, align 8
  %48 = call ptr @DatumGetPointer(i64 noundef %47)
  %49 = call ptr @text_to_cstring(ptr noundef %48)
  store ptr %49, ptr %17, align 8
  %50 = call ptr @__errno_location() #12
  store i32 0, ptr %50, align 4
  %51 = load ptr, ptr %17, align 8
  %52 = call i32 @strtoint(ptr noundef %51, ptr noundef %18, i32 noundef 10)
  store i32 %52, ptr %19, align 4
  %53 = load ptr, ptr %18, align 8
  %54 = load ptr, ptr %17, align 8
  %55 = icmp eq ptr %53, %54
  br i1 %55, label %65, label %56

56:                                               ; preds = %42
  %57 = load ptr, ptr %18, align 8
  %58 = load i8, ptr %57, align 1
  %59 = sext i8 %58 to i32
  %60 = icmp ne i32 %59, 0
  br i1 %60, label %65, label %61

61:                                               ; preds = %56
  %62 = call ptr @__errno_location() #12
  %63 = load i32, ptr %62, align 4
  %64 = icmp ne i32 %63, 0
  br i1 %64, label %65, label %85

65:                                               ; preds = %61, %56, %42
  %66 = getelementptr inbounds nuw %struct.JsonbValue, ptr %14, i32 0, i32 0
  store i32 1, ptr %66, align 8
  %67 = load ptr, ptr %17, align 8
  %68 = getelementptr inbounds nuw %struct.JsonbValue, ptr %14, i32 0, i32 1
  %69 = getelementptr inbounds nuw %struct.anon.1, ptr %68, i32 0, i32 1
  store ptr %67, ptr %69, align 8
  %70 = load ptr, ptr %17, align 8
  %71 = call i64 @strlen(ptr noundef %70) #13
  %72 = trunc i64 %71 to i32
  %73 = getelementptr inbounds nuw %struct.JsonbValue, ptr %14, i32 0, i32 1
  %74 = getelementptr inbounds nuw %struct.anon.1, ptr %73, i32 0, i32 0
  store i32 %72, ptr %74, align 8
  %75 = load ptr, ptr %7, align 8
  %76 = call ptr @pushJsonbValue(ptr noundef %75, i32 noundef 6, ptr noundef null)
  %77 = load ptr, ptr %7, align 8
  %78 = call ptr @pushJsonbValue(ptr noundef %77, i32 noundef 1, ptr noundef %14)
  %79 = load ptr, ptr %13, align 8
  %80 = load i32, ptr %15, align 4
  %81 = load i32, ptr %8, align 4
  %82 = sub i32 %80, %81
  %83 = sext i32 %82 to i64
  %84 = getelementptr inbounds i32, ptr %79, i64 %83
  store i32 17, ptr %84, align 4
  br label %96

85:                                               ; preds = %61
  %86 = load ptr, ptr %7, align 8
  %87 = call ptr @pushJsonbValue(ptr noundef %86, i32 noundef 4, ptr noundef null)
  %88 = load ptr, ptr %7, align 8
  %89 = load i32, ptr %19, align 4
  call void @push_null_elements(ptr noundef %88, i32 noundef %89)
  %90 = load ptr, ptr %13, align 8
  %91 = load i32, ptr %15, align 4
  %92 = load i32, ptr %8, align 4
  %93 = sub i32 %91, %92
  %94 = sext i32 %93 to i64
  %95 = getelementptr inbounds i32, ptr %90, i64 %94
  store i32 16, ptr %95, align 4
  br label %96

96:                                               ; preds = %85, %65
  store i32 0, ptr %16, align 4
  br label %97

97:                                               ; preds = %96, %41
  call void @llvm.lifetime.end.p0(i64 4, ptr %19) #10
  call void @llvm.lifetime.end.p0(i64 8, ptr %18) #10
  call void @llvm.lifetime.end.p0(i64 8, ptr %17) #10
  %98 = load i32, ptr %16, align 4
  switch i32 %98, label %103 [
    i32 0, label %99
  ]

99:                                               ; preds = %97
  br label %100

100:                                              ; preds = %99
  %101 = load i32, ptr %15, align 4
  %102 = add i32 %101, 1
  store i32 %102, ptr %15, align 4
  br label %29, !llvm.loop !43

103:                                              ; preds = %97, %33
  call void @llvm.lifetime.end.p0(i64 4, ptr %15) #10
  br label %104

104:                                              ; preds = %103
  %105 = load ptr, ptr %13, align 8
  %106 = load i32, ptr %11, align 4
  %107 = load i32, ptr %8, align 4
  %108 = sub i32 %106, %107
  %109 = sub i32 %108, 1
  %110 = sext i32 %109 to i64
  %111 = getelementptr inbounds i32, ptr %105, i64 %110
  %112 = load i32, ptr %111, align 4
  %113 = icmp eq i32 %112, 16
  br i1 %113, label %114, label %118

114:                                              ; preds = %104
  %115 = load ptr, ptr %7, align 8
  %116 = load ptr, ptr %12, align 8
  %117 = call ptr @pushJsonbValue(ptr noundef %115, i32 noundef 3, ptr noundef %116)
  br label %122

118:                                              ; preds = %104
  %119 = load ptr, ptr %7, align 8
  %120 = load ptr, ptr %12, align 8
  %121 = call ptr @pushJsonbValue(ptr noundef %119, i32 noundef 2, ptr noundef %120)
  br label %122

122:                                              ; preds = %118, %114
  call void @llvm.lifetime.start.p0(i64 4, ptr %20) #10
  %123 = load i32, ptr %11, align 4
  %124 = sub i32 %123, 1
  store i32 %124, ptr %20, align 4
  br label %125

125:                                              ; preds = %154, %122
  %126 = load i32, ptr %20, align 4
  %127 = load i32, ptr %8, align 4
  %128 = icmp sgt i32 %126, %127
  br i1 %128, label %130, label %129

129:                                              ; preds = %125
  store i32 5, ptr %16, align 4
  br label %157

130:                                              ; preds = %125
  %131 = load ptr, ptr %10, align 8
  %132 = load i32, ptr %20, align 4
  %133 = sext i32 %132 to i64
  %134 = getelementptr inbounds i8, ptr %131, i64 %133
  %135 = load i8, ptr %134, align 1, !range !4, !noundef !5
  %136 = trunc i8 %135 to i1
  br i1 %136, label %137, label %138

137:                                              ; preds = %130
  store i32 5, ptr %16, align 4
  br label %157

138:                                              ; preds = %130
  %139 = load ptr, ptr %13, align 8
  %140 = load i32, ptr %20, align 4
  %141 = load i32, ptr %8, align 4
  %142 = sub i32 %140, %141
  %143 = sext i32 %142 to i64
  %144 = getelementptr inbounds i32, ptr %139, i64 %143
  %145 = load i32, ptr %144, align 4
  %146 = icmp eq i32 %145, 17
  br i1 %146, label %147, label %150

147:                                              ; preds = %138
  %148 = load ptr, ptr %7, align 8
  %149 = call ptr @pushJsonbValue(ptr noundef %148, i32 noundef 7, ptr noundef null)
  br label %153

150:                                              ; preds = %138
  %151 = load ptr, ptr %7, align 8
  %152 = call ptr @pushJsonbValue(ptr noundef %151, i32 noundef 5, ptr noundef null)
  br label %153

153:                                              ; preds = %150, %147
  br label %154

154:                                              ; preds = %153
  %155 = load i32, ptr %20, align 4
  %156 = add i32 %155, -1
  store i32 %156, ptr %20, align 4
  br label %125, !llvm.loop !44

157:                                              ; preds = %137, %129
  call void @llvm.lifetime.end.p0(i64 4, ptr %20) #10
  br label %158

158:                                              ; preds = %157
  call void @llvm.lifetime.end.p0(i64 32, ptr %14) #10
  call void @llvm.lifetime.end.p0(i64 8, ptr %13) #10
  ret void
}