; Function Attrs: nounwind uwtable
define internal fastcc void @push_path(ptr noundef nonnull %0, i32 noundef %1, ptr noundef readonly captures(none) %2, ptr noundef readonly captures(none) %3, i32 noundef %4, ptr noundef %5) unnamed_addr #0 {
  %7 = alloca %struct.JsonbValue, align 8
  %8 = alloca %struct.JsonbValue, align 8
  %9 = alloca ptr, align 8
  %10 = sub i32 %4, %1
  %11 = sext i32 %10 to i64
  %12 = shl nsw i64 %11, 2
  %13 = tail call ptr @palloc0(i64 noundef %12) #15
  call void @llvm.lifetime.start.p0(i64 32, ptr nonnull %8) #15
  %.04348 = add i32 %1, 1
  %14 = icmp slt i32 %.04348, %4
  br i1 %14, label %.lr.ph, label %.loopexit

.lr.ph:                                           ; preds = %6
  %15 = getelementptr inbounds nuw i8, ptr %8, i64 8
  %16 = getelementptr inbounds nuw i8, ptr %8, i64 16
  %17 = sext i32 %.04348 to i64
  br label %18

18:                                               ; preds = %.lr.ph, %46
  %indvars.iv = phi i64 [ %17, %.lr.ph ], [ %indvars.iv.next, %46 ]
  call void @llvm.lifetime.start.p0(i64 8, ptr nonnull %9) #15
  %19 = getelementptr inbounds i8, ptr %3, i64 %indvars.iv
  %20 = load i8, ptr %19, align 1, !range !4, !noundef !5
  %21 = trunc nuw i8 %20 to i1
  br i1 %21, label %.critedge, label %22

22:                                               ; preds = %18
  %23 = getelementptr inbounds i64, ptr %2, i64 %indvars.iv
  %24 = load i64, ptr %23, align 8
  %25 = inttoptr i64 %24 to ptr
  %26 = call ptr @text_to_cstring(ptr noundef %25) #15
  %27 = tail call ptr @__errno_location() #17
  store i32 0, ptr %27, align 4
  %28 = call i32 @strtoint(ptr noundef %26, ptr noundef nonnull %9, i32 noundef 10) #15
  %29 = load ptr, ptr %9, align 8
  %30 = icmp eq ptr %29, %26
  br i1 %30, label %35, label %31

31:                                               ; preds = %22
  %32 = load i8, ptr %29, align 1
  %.not = icmp eq i8 %32, 0
  br i1 %.not, label %33, label %35

33:                                               ; preds = %31
  %34 = load i32, ptr %27, align 4
  %.not47 = icmp eq i32 %34, 0
  br i1 %.not47, label %40, label %35

35:                                               ; preds = %33, %31, %22
  store i32 1, ptr %8, align 8
  store ptr %26, ptr %16, align 8
  %36 = call i64 @strlen(ptr noundef nonnull dereferenceable(1) %26) #18
  %37 = trunc i64 %36 to i32
  store i32 %37, ptr %15, align 8
  %38 = call ptr @pushJsonbValue(ptr noundef nonnull %0, i32 noundef 6, ptr noundef null) #15
  %39 = call ptr @pushJsonbValue(ptr noundef nonnull %0, i32 noundef 1, ptr noundef nonnull %8) #15
  br label %46

40:                                               ; preds = %33
  %41 = call ptr @pushJsonbValue(ptr noundef nonnull %0, i32 noundef 4, ptr noundef null) #15
  call void @llvm.lifetime.start.p0(i64 32, ptr nonnull %7) #15
  store i32 0, ptr %7, align 8
  %42 = icmp sgt i32 %28, 0
  br i1 %42, label %.lr.ph.i, label %push_null_elements.exit

.lr.ph.i:                                         ; preds = %40, %.lr.ph.i
  %.01.i = phi i32 [ %43, %.lr.ph.i ], [ %28, %40 ]
  %43 = add nsw i32 %.01.i, -1
  %44 = call ptr @pushJsonbValue(ptr noundef nonnull %0, i32 noundef 3, ptr noundef nonnull %7) #15
  %45 = icmp samesign ugt i32 %.01.i, 1
  br i1 %45, label %.lr.ph.i, label %push_null_elements.exit, !llvm.loop !10

push_null_elements.exit:                          ; preds = %.lr.ph.i, %40
  call void @llvm.lifetime.end.p0(i64 32, ptr nonnull %7) #15
  br label %46

46:                                               ; preds = %35, %push_null_elements.exit
  %.sink = phi i32 [ 17, %35 ], [ 16, %push_null_elements.exit ]
  %47 = trunc nsw i64 %indvars.iv to i32
  %48 = sub i32 %47, %1
  %49 = sext i32 %48 to i64
  %50 = getelementptr inbounds i32, ptr %13, i64 %49
  store i32 %.sink, ptr %50, align 4
  call void @llvm.lifetime.end.p0(i64 8, ptr nonnull %9) #15
  %indvars.iv.next = add nsw i64 %indvars.iv, 1
  %lftr.wideiv = trunc i64 %indvars.iv.next to i32
  %exitcond.not = icmp eq i32 %4, %lftr.wideiv
  br i1 %exitcond.not, label %.loopexit, label %18, !llvm.loop !40

.critedge:                                        ; preds = %18
  call void @llvm.lifetime.end.p0(i64 8, ptr nonnull %9) #15
  br label %.loopexit

.loopexit:                                        ; preds = %46, %6, %.critedge
  %51 = add i32 %10, -1
  %52 = sext i32 %51 to i64
  %53 = getelementptr inbounds i32, ptr %13, i64 %52
  %54 = load i32, ptr %53, align 4
  %55 = icmp eq i32 %54, 16
  %. = select i1 %55, i32 3, i32 2
  %56 = call ptr @pushJsonbValue(ptr noundef nonnull %0, i32 noundef %., ptr noundef %5) #15
  %.050 = add i32 %4, -1
  %57 = icmp sgt i32 %.050, %1
  br i1 %57, label %.lr.ph52.preheader, label %._crit_edge

.lr.ph52.preheader:                               ; preds = %.loopexit
  %58 = sext i32 %.050 to i64
  %59 = sext i32 %1 to i64
  br label %.lr.ph52

.lr.ph52:                                         ; preds = %.lr.ph52.preheader, %63
  %indvars.iv55 = phi i64 [ %58, %.lr.ph52.preheader ], [ %indvars.iv.next56, %63 ]
  %60 = getelementptr inbounds i8, ptr %3, i64 %indvars.iv55
  %61 = load i8, ptr %60, align 1, !range !4, !noundef !5
  %62 = trunc nuw i8 %61 to i1
  br i1 %62, label %._crit_edge, label %63

63:                                               ; preds = %.lr.ph52
  %64 = trunc nsw i64 %indvars.iv55 to i32
  %65 = sub i32 %64, %1
  %66 = sext i32 %65 to i64
  %67 = getelementptr inbounds i32, ptr %13, i64 %66
  %68 = load i32, ptr %67, align 4
  %69 = icmp eq i32 %68, 17
  %.64 = select i1 %69, i32 7, i32 5
  %70 = call ptr @pushJsonbValue(ptr noundef nonnull %0, i32 noundef %.64, ptr noundef null) #15
  %indvars.iv.next56 = add nsw i64 %indvars.iv55, -1
  %71 = icmp sgt i64 %indvars.iv.next56, %59
  br i1 %71, label %.lr.ph52, label %._crit_edge, !llvm.loop !41

._crit_edge:                                      ; preds = %63, %.lr.ph52, %.loopexit
  call void @llvm.lifetime.end.p0(i64 32, ptr nonnull %8) #15
  ret void
}